; Function Attrs: nounwind uwtable
define dso_local void @PyErr_SetString(ptr noundef %0, ptr noundef %1) local_unnamed_addr #0 {
  %3 = tail call align 8 ptr @llvm.threadlocal.address.p0(ptr align 8 @_Py_tss_tstate)
  %4 = load ptr, ptr %3, align 8, !tbaa !25
  %5 = tail call ptr @PyUnicode_FromString(ptr noundef %1) #17
  %.not.i = icmp eq ptr %5, null
  br i1 %.not.i, label %_PyErr_SetString.exit, label %6

6:                                                ; preds = %2
  tail call void @_PyErr_SetObject(ptr noundef %4, ptr noundef %0, ptr noundef nonnull %5)
  %7 = load i32, ptr %5, align 8, !tbaa !20
  %.not.i.i = icmp sgt i32 %7, -1
  br i1 %.not.i.i, label %8, label %_PyErr_SetString.exit

8:                                                ; preds = %6
  %9 = add nsw i32 %7, -1
  store i32 %9, ptr %5, align 8, !tbaa !20
  %10 = icmp eq i32 %9, 0
  br i1 %10, label %11, label %_PyErr_SetString.exit

11:                                               ; preds = %8
  tail call void @_Py_Dealloc(ptr noundef nonnull %5) #17
  br label %_PyErr_SetString.exit

_PyErr_SetString.exit:                            ; preds = %2, %6, %8, %11
  ret void
}